target datalayout = "e-m:e-p270:32:32-p271:32:32-p272:64:64-i64:64-i128:128-f80:128-n8:16:32:64-S128"
target triple = "x86_64-pc-linux-gnu"

%struct.jpeg_compress_struct = type { ptr, ptr, ptr, ptr, i32, i32, ptr, i32, i32, i32, i32, double, i32, i32, i32, ptr, [4 x ptr], [4 x ptr], [4 x ptr], [16 x i8], [16 x i8], [16 x i8], i32, ptr, i32, i32, i32, i32, i32, i32, i32, i32, i32, i8, i8, i8, i16, i16, i32, i32, i32, i32, i32, i32, i32, [4 x ptr], i32, i32, i32, [10 x i32], i32, i32, i32, i32, ptr, ptr, ptr, ptr, ptr, ptr, ptr, ptr, ptr, ptr, i32 }
%struct.jpeg_component_info = type { i32, i32, i32, i32, i32, i32, i32, i32, i32, i32, i32, i32, i32, i32, i32, i32, i32, i32, i32, ptr, ptr }

@stderr = external global ptr, align 8
@.str.9 = private unnamed_addr constant [5 x i8] c"%d%c\00", align 1
@.str.10 = private unnamed_addr constant [45 x i8] c"JPEG quantization tables are numbered 0..%d\0A\00", align 1

; Function Attrs: nounwind uwtable
define dso_local i32 @set_quant_slots(ptr noundef %0, ptr noundef %1) #0 {
  %3 = alloca i32, align 4
  %4 = alloca ptr, align 8
  %5 = alloca ptr, align 8
  %6 = alloca i32, align 4
  %7 = alloca i32, align 4
  %8 = alloca i8, align 1
  %9 = alloca i32, align 4
  store ptr %0, ptr %4, align 8, !tbaa !4
  store ptr %1, ptr %5, align 8, !tbaa !9
  call void @llvm.lifetime.start.p0(i64 4, ptr %6) #6
  store i32 0, ptr %6, align 4, !tbaa !11
  call void @llvm.lifetime.start.p0(i64 4, ptr %7) #6
  call void @llvm.lifetime.start.p0(i64 1, ptr %8) #6
  store i32 0, ptr %7, align 4, !tbaa !11
  br label %10

10:                                               ; preds = %70, %2
  %11 = load i32, ptr %7, align 4, !tbaa !11
  %12 = icmp slt i32 %11, 10
  br i1 %12, label %13, label %73

13:                                               ; preds = %10
  %14 = load ptr, ptr %5, align 8, !tbaa !9
  %15 = load i8, ptr %14, align 1, !tbaa !60
  %16 = icmp ne i8 %15, 0
  br i1 %16, label %17, label %60

17:                                               ; preds = %13
  store i8 44, ptr %8, align 1, !tbaa !60
  %18 = load ptr, ptr %5, align 8, !tbaa !9
  %19 = call i32 (ptr, ptr, ...) @__isoc99_sscanf(ptr noundef %18, ptr noundef @.str.9, ptr noundef %6, ptr noundef %8) #6
  %20 = icmp slt i32 %19, 1
  br i1 %20, label %21, label %22

21:                                               ; preds = %17
  store i32 0, ptr %3, align 4
  store i32 1, ptr %9, align 4
  br label %74

22:                                               ; preds = %17
  %23 = load i8, ptr %8, align 1, !tbaa !60
  %24 = sext i8 %23 to i32
  %25 = icmp ne i32 %24, 44
  br i1 %25, label %26, label %27

26:                                               ; preds = %22
  store i32 0, ptr %3, align 4
  store i32 1, ptr %9, align 4
  br label %74

27:                                               ; preds = %22
  %28 = load i32, ptr %6, align 4, !tbaa !11
  %29 = icmp slt i32 %28, 0
  br i1 %29, label %33, label %30

30:                                               ; preds = %27
  %31 = load i32, ptr %6, align 4, !tbaa !11
  %32 = icmp sge i32 %31, 4
  br i1 %32, label %33, label %36

33:                                               ; preds = %30, %27
  %34 = load ptr, ptr @stderr, align 8, !tbaa !13
  %35 = call i32 (ptr, ptr, ...) @fprintf(ptr noundef %34, ptr noundef @.str.10, i32 noundef 3) #6
  store i32 0, ptr %3, align 4
  store i32 1, ptr %9, align 4
  br label %74

36:                                               ; preds = %30
  %37 = load i32, ptr %6, align 4, !tbaa !11
  %38 = load ptr, ptr %4, align 8, !tbaa !4
  %39 = getelementptr inbounds nuw %struct.jpeg_compress_struct, ptr %38, i32 0, i32 15
  %40 = load ptr, ptr %39, align 8, !tbaa !63
  %41 = load i32, ptr %7, align 4, !tbaa !11
  %42 = sext i32 %41 to i64
  %43 = getelementptr inbounds %struct.jpeg_component_info, ptr %40, i64 %42
  %44 = getelementptr inbounds nuw %struct.jpeg_component_info, ptr %43, i32 0, i32 4
  store i32 %37, ptr %44, align 8, !tbaa !64
  br label %45

45:                                               ; preds = %58, %36
  %46 = load ptr, ptr %5, align 8, !tbaa !9
  %47 = load i8, ptr %46, align 1, !tbaa !60
  %48 = sext i8 %47 to i32
  %49 = icmp ne i32 %48, 0
  br i1 %49, label %50, label %56

50:                                               ; preds = %45
  %51 = load ptr, ptr %5, align 8, !tbaa !9
  %52 = getelementptr inbounds nuw i8, ptr %51, i32 1
  store ptr %52, ptr %5, align 8, !tbaa !9
  %53 = load i8, ptr %51, align 1, !tbaa !60
  %54 = sext i8 %53 to i32
  %55 = icmp ne i32 %54, 44
  br label %56

56:                                               ; preds = %50, %45
  %57 = phi i1 [ false, %45 ], [ %55, %50 ]
  br i1 %57, label %58, label %59

58:                                               ; preds = %56
  br label %45, !llvm.loop !66

59:                                               ; preds = %56
  br label %69

60:                                               ; preds = %13
  %61 = load i32, ptr %6, align 4, !tbaa !11
  %62 = load ptr, ptr %4, align 8, !tbaa !4
  %63 = getelementptr inbounds nuw %struct.jpeg_compress_struct, ptr %62, i32 0, i32 15
  %64 = load ptr, ptr %63, align 8, !tbaa !63
  %65 = load i32, ptr %7, align 4, !tbaa !11
  %66 = sext i32 %65 to i64
  %67 = getelementptr inbounds %struct.jpeg_component_info, ptr %64, i64 %66
  %68 = getelementptr inbounds nuw %struct.jpeg_component_info, ptr %67, i32 0, i32 4
  store i32 %61, ptr %68, align 8, !tbaa !64
  br label %69

69:                                               ; preds = %60, %59
  br label %70

70:                                               ; preds = %69
  %71 = load i32, ptr %7, align 4, !tbaa !11
  %72 = add nsw i32 %71, 1
  store i32 %72, ptr %7, align 4, !tbaa !11
  br label %10, !llvm.loop !67

73:                                               ; preds = %10
  store i32 1, ptr %3, align 4
  store i32 1, ptr %9, align 4
  br label %74

74:                                               ; preds = %73, %33, %26, %21
  call void @llvm.lifetime.end.p0(i64 1, ptr %8) #6
  call void @llvm.lifetime.end.p0(i64 4, ptr %7) #6
  call void @llvm.lifetime.end.p0(i64 4, ptr %6) #6
  %75 = load i32, ptr %3, align 4
  ret i32 %75
}