; Function Attrs: nofree nounwind uwtable
define dso_local range(i32 0, 2) i32 @set_quant_slots(ptr noundef readonly captures(none) %0, ptr noundef readonly captures(none) %1) local_unnamed_addr #3 {
  %3 = alloca i32, align 4
  %4 = alloca i8, align 1
  call void @llvm.lifetime.start.p0(i64 4, ptr nonnull %3) #8
  store i32 0, ptr %3, align 4, !tbaa !11
  call void @llvm.lifetime.start.p0(i64 1, ptr nonnull %4) #8
  %5 = getelementptr inbounds nuw i8, ptr %0, i64 88
  br label %6

6:                                                ; preds = %2, %.critedge
  %indvars.iv = phi i64 [ 0, %2 ], [ %indvars.iv.next, %.critedge ]
  %.01119 = phi ptr [ %1, %2 ], [ %.2, %.critedge ]
  %7 = load i8, ptr %.01119, align 1, !tbaa !51
  %.not = icmp eq i8 %7, 0
  br i1 %.not, label %24, label %8

8:                                                ; preds = %6
  store i8 44, ptr %4, align 1, !tbaa !51
  %9 = call i32 (ptr, ptr, ...) @__isoc99_sscanf(ptr noundef nonnull %.01119, ptr noundef nonnull @.str.9, ptr noundef nonnull %3, ptr noundef nonnull %4) #8
  %10 = icmp sgt i32 %9, 0
  %11 = load i8, ptr %4, align 1
  %.not15 = icmp eq i8 %11, 44
  %or.cond18 = select i1 %10, i1 %.not15, i1 false
  br i1 %or.cond18, label %12, label %.loopexit

12:                                               ; preds = %8
  %13 = load i32, ptr %3, align 4, !tbaa !11
  %or.cond = icmp ugt i32 %13, 3
  br i1 %or.cond, label %14, label %17

14:                                               ; preds = %12
  %15 = load ptr, ptr @stderr, align 8, !tbaa !4
  %16 = call i32 (ptr, ptr, ...) @fprintf(ptr noundef %15, ptr noundef nonnull @.str.10, i32 noundef 3) #9
  br label %.loopexit

17:                                               ; preds = %12
  %18 = load ptr, ptr %5, align 8, !tbaa !54
  %19 = getelementptr inbounds nuw %struct.jpeg_component_info, ptr %18, i64 %indvars.iv, i32 4
  store i32 %13, ptr %19, align 8, !tbaa !55
  br label %20

20:                                               ; preds = %22, %17
  %.1 = phi ptr [ %.01119, %17 ], [ %23, %22 ]
  %21 = load i8, ptr %.1, align 1, !tbaa !51
  %.not16 = icmp eq i8 %21, 0
  br i1 %.not16, label %.critedge, label %22

22:                                               ; preds = %20
  %23 = getelementptr inbounds nuw i8, ptr %.1, i64 1
  %.not17 = icmp eq i8 %21, 44
  br i1 %.not17, label %.critedge, label %20, !llvm.loop !57

24:                                               ; preds = %6
  %25 = load i32, ptr %3, align 4, !tbaa !11
  %26 = load ptr, ptr %5, align 8, !tbaa !54
  %27 = getelementptr inbounds nuw %struct.jpeg_component_info, ptr %26, i64 %indvars.iv, i32 4
  store i32 %25, ptr %27, align 8, !tbaa !55
  br label %.critedge

.critedge:                                        ; preds = %20, %22, %24
  %.2 = phi ptr [ %.01119, %24 ], [ %.1, %20 ], [ %23, %22 ]
  %indvars.iv.next = add nuw nsw i64 %indvars.iv, 1
  %exitcond.not = icmp eq i64 %indvars.iv.next, 10
  br i1 %exitcond.not, label %.loopexit, label %6, !llvm.loop !58

.loopexit:                                        ; preds = %.critedge, %8, %14
  %.012 = phi i32 [ 0, %14 ], [ 1, %.critedge ], [ 0, %8 ]
  call void @llvm.lifetime.end.p0(i64 1, ptr nonnull %4) #8
  call void @llvm.lifetime.end.p0(i64 4, ptr nonnull %3) #8
  ret i32 %.012
}